; Function Attrs: mustprogress nofree norecurse nosync nounwind willreturn memory(read, inaccessiblemem: none) uwtable
define dso_local noundef i32 @_ZN5ImGui18TableGetHoveredRowEv() local_unnamed_addr #12 {
  %1 = load ptr, ptr @GImGui, align 8, !tbaa !4
  %2 = getelementptr inbounds nuw i8, ptr %1, i64 8536
  %3 = load ptr, ptr %2, align 8, !tbaa !259
  %.not = icmp eq ptr %3, null
  br i1 %.not, label %18, label %4

4:                                                ; preds = %0
  %5 = getelementptr inbounds nuw i8, ptr %3, i64 120
  %6 = load i16, ptr %5, align 8, !tbaa !202
  %7 = icmp eq i16 %6, 0
  br i1 %7, label %8, label %10

8:                                                ; preds = %4
  %9 = getelementptr inbounds nuw i8, ptr %3, i64 424
  br label %_ZN5ImGui20TableGetInstanceDataEP10ImGuiTablei.exit

10:                                               ; preds = %4
  %11 = getelementptr inbounds nuw i8, ptr %3, i64 456
  %12 = load ptr, ptr %11, align 8, !tbaa !212
  %13 = sext i16 %6 to i64
  %14 = getelementptr %struct.ImGuiTableInstanceData, ptr %12, i64 %13
  %15 = getelementptr i8, ptr %14, i64 -24
  br label %_ZN5ImGui20TableGetInstanceDataEP10ImGuiTablei.exit

_ZN5ImGui20TableGetInstanceDataEP10ImGuiTablei.exit: ; preds = %8, %10
  %.0.i = phi ptr [ %9, %8 ], [ %15, %10 ]
  %16 = getelementptr inbounds nuw i8, ptr %.0.i, i64 16
  %17 = load i32, ptr %16, align 4, !tbaa !384
  br label %18

18:                                               ; preds = %0, %_ZN5ImGui20TableGetInstanceDataEP10ImGuiTablei.exit
  %.0 = phi i32 [ %17, %_ZN5ImGui20TableGetInstanceDataEP10ImGuiTablei.exit ], [ -1, %0 ]
  ret i32 %.0
}